target datalayout = "e-m:e-p270:32:32-p271:32:32-p272:64:64-i64:64-i128:128-f80:128-n8:16:32:64-S128"
target triple = "x86_64-pc-linux-gnu"

%struct.SDL_Rect = type { i32, i32, i32, i32 }
%struct.SDL_VideoData = type { ptr, ptr, i32, ptr, i64, i32, ptr, i32, i64, i64, %struct.X11_ClipboardData, %struct.X11_ClipboardData, ptr, i64, %struct.X11_SettingsData, i8, %struct.anon.1, [256 x i32], i8, i8, i8, i64, i8, %struct.SDL_Point, i32, ptr, i32, i8, i32, %struct.anon.2, i8, i64, ptr, ptr, i8, i8, i8 }
%struct.X11_ClipboardData = type { ptr, ptr, ptr, i64, i32 }
%struct.X11_SettingsData = type { ptr }
%struct.anon.1 = type { i64, i64, i64, i64, i64, i64, i64, i64, i64, i64, i64, i64, i64, i64, i64, i64, i64, i64, i64, i64, i64, i64, i64, i64, i64, i64, i64, i64, i64, i64, i64, i64, i64, i64, i64, i64, i64, i64, i64, i64, i64, i64, i64, i64, i64, i64, i64, i64, i64, i64, i64, i64, i64 }
%struct.SDL_Point = type { i32, i32 }
%struct.anon.2 = type { ptr, i32, i32, i32, i16, i32, i32 }
%struct.SDL_Window = type { i32, ptr, ptr, i32, i32, i32, i32, i32, i32, i32, i32, float, float, i32, i32, i64, i64, float, i8, i8, i32, i32, %struct.SDL_Rect, %struct.SDL_Rect, %struct.SDL_Rect, i8, i8, i8, %struct.SDL_DisplayMode, %struct.SDL_DisplayMode, %struct.SDL_HDROutputProperties, float, ptr, i8, i8, i8, i8, i8, i8, i8, i8, i8, i32, i32, i32, i32, %struct.SDL_Rect, i32, i8, %struct.SDL_Rect, i32, %struct.SDL_Rect, ptr, ptr, i32, float, i32, i32, ptr, ptr, ptr, ptr, ptr, ptr, ptr, ptr, ptr }
%struct.SDL_DisplayMode = type { i32, i32, i32, i32, float, float, i32, i32, ptr }
%struct.SDL_HDROutputProperties = type { float, float }
%struct.SDL_WindowData = type { ptr, i64, ptr, i64, i8, %struct.XShmSegmentInfo, ptr, ptr, ptr, i8, i32, i32, i32, i32, i8, i8, i8, i64, i32, i64, i8, %struct.SDL_Point, %struct.XConfigureEvent, %struct.XConfigureEvent, ptr, i64, i64, i64, i8, i64, ptr, i8, [4 x i64], %struct.SDL_Rect, i64, %struct._XSyncValue, i8, %struct.SDL_Rect, %struct.SDL_DisplayMode, i32, i32, i8, i8, i8, i8, i8, i8, i8, i8, i32, %struct.XPoint, ptr, ptr, i32, i32, i8 }
%struct.XShmSegmentInfo = type { i64, i32, ptr, i32 }
%struct.XConfigureEvent = type { i32, i64, i32, ptr, i64, i64, i32, i32, i32, i32, i32, i64, i32 }
%struct._XSyncValue = type { i32, i32 }
%struct.XPoint = type { i16, i16 }
%struct.SDL_Surface = type { i32, i32, i32, i32, i32, ptr, i32, ptr, i32, i32, ptr, i32, ptr, i32, ptr, i32, %struct.SDL_Rect, %struct.SDL_BlitMap }
%struct.SDL_BlitMap = type { i32, ptr, ptr, %struct.SDL_BlitInfo, i32, i32 }
%struct.SDL_BlitInfo = type { ptr, ptr, i32, i32, i32, i32, ptr, ptr, i32, i32, i32, i32, ptr, ptr, ptr, ptr, ptr, ptr, i32, i32, i8, i8, i8, i8 }

@X11_XChangeProperty = external global ptr, align 8
@X11_XFlush = external global ptr, align 8
@X11_XSync = external global ptr, align 8
@X11_XSetErrorHandler = external global ptr, align 8
@caught_x11_error = internal global i8 0, align 1
@.str.25 = private unnamed_addr constant [56 x i8] c"An error occurred while trying to set the window's icon\00", align 1

; Function Attrs: nounwind uwtable
define hidden zeroext i1 @X11_SetWindowIcon(ptr noundef %0, ptr noundef %1, ptr noundef %2) #0 {
  %4 = alloca i1, align 1
  %5 = alloca ptr, align 8
  %6 = alloca ptr, align 8
  %7 = alloca ptr, align 8
  %8 = alloca ptr, align 8
  %9 = alloca ptr, align 8
  %10 = alloca i64, align 8
  %11 = alloca ptr, align 8
  %12 = alloca i8, align 1
  %13 = alloca i32, align 4
  %14 = alloca i32, align 4
  %15 = alloca i32, align 4
  %16 = alloca ptr, align 8
  %17 = alloca ptr, align 8
  %18 = alloca ptr, align 8
  %19 = alloca i32, align 4
  store ptr %0, ptr %5, align 8
  store ptr %1, ptr %6, align 8
  store ptr %2, ptr %7, align 8
  call void @llvm.lifetime.start.p0(i64 8, ptr %8) #7
  %20 = load ptr, ptr %6, align 8
  %21 = getelementptr inbounds nuw %struct.SDL_Window, ptr %20, i32 0, i32 59
  %22 = load ptr, ptr %21, align 8
  store ptr %22, ptr %8, align 8
  call void @llvm.lifetime.start.p0(i64 8, ptr %9) #7
  %23 = load ptr, ptr %8, align 8
  %24 = getelementptr inbounds nuw %struct.SDL_WindowData, ptr %23, i32 0, i32 24
  %25 = load ptr, ptr %24, align 8
  %26 = getelementptr inbounds nuw %struct.SDL_VideoData, ptr %25, i32 0, i32 0
  %27 = load ptr, ptr %26, align 8
  store ptr %27, ptr %9, align 8
  call void @llvm.lifetime.start.p0(i64 8, ptr %10) #7
  %28 = load ptr, ptr %8, align 8
  %29 = getelementptr inbounds nuw %struct.SDL_WindowData, ptr %28, i32 0, i32 24
  %30 = load ptr, ptr %29, align 8
  %31 = getelementptr inbounds nuw %struct.SDL_VideoData, ptr %30, i32 0, i32 16
  %32 = getelementptr inbounds nuw %struct.anon.1, ptr %31, i32 0, i32 20
  %33 = load i64, ptr %32, align 8
  store i64 %33, ptr %10, align 8
  call void @llvm.lifetime.start.p0(i64 8, ptr %11) #7
  store ptr null, ptr %11, align 8
  call void @llvm.lifetime.start.p0(i64 1, ptr %12) #7
  store i8 1, ptr %12, align 1
  %34 = load ptr, ptr %7, align 8
  %35 = icmp ne ptr %34, null
  br i1 %35, label %36, label %132

36:                                               ; preds = %3
  call void @llvm.lifetime.start.p0(i64 4, ptr %13) #7
  call void @llvm.lifetime.start.p0(i64 4, ptr %14) #7
  call void @llvm.lifetime.start.p0(i64 4, ptr %15) #7
  call void @llvm.lifetime.start.p0(i64 8, ptr %16) #7
  call void @llvm.lifetime.start.p0(i64 8, ptr %17) #7
  call void @llvm.lifetime.start.p0(i64 8, ptr %18) #7
  br label %37

37:                                               ; preds = %36
  br label %38

38:                                               ; preds = %37
  br label %39

39:                                               ; preds = %38
  %40 = load ptr, ptr %7, align 8
  %41 = getelementptr inbounds nuw %struct.SDL_Surface, ptr %40, i32 0, i32 2
  %42 = load i32, ptr %41, align 8
  %43 = load ptr, ptr %7, align 8
  %44 = getelementptr inbounds nuw %struct.SDL_Surface, ptr %43, i32 0, i32 3
  %45 = load i32, ptr %44, align 4
  %46 = mul nsw i32 %42, %45
  %47 = add nsw i32 2, %46
  store i32 %47, ptr %15, align 4
  %48 = load i32, ptr %15, align 4
  %49 = sext i32 %48 to i64
  %50 = mul i64 %49, 8
  %51 = call noalias ptr @SDL_malloc_REAL(i64 noundef %50)
  store ptr %51, ptr %16, align 8
  %52 = load ptr, ptr %16, align 8
  %53 = icmp ne ptr %52, null
  br i1 %53, label %55, label %54

54:                                               ; preds = %39
  store i1 false, ptr %4, align 1
  store i32 1, ptr %19, align 4
  br label %129

55:                                               ; preds = %39
  %56 = load ptr, ptr @X11_XSync, align 8
  %57 = load ptr, ptr %9, align 8
  %58 = call i32 %56(ptr noundef %57, i32 noundef 0)
  %59 = load ptr, ptr @X11_XSetErrorHandler, align 8
  %60 = call ptr %59(ptr noundef @X11_CatchAnyError)
  store ptr %60, ptr %11, align 8
  %61 = load ptr, ptr %7, align 8
  %62 = getelementptr inbounds nuw %struct.SDL_Surface, ptr %61, i32 0, i32 2
  %63 = load i32, ptr %62, align 8
  %64 = sext i32 %63 to i64
  %65 = load ptr, ptr %16, align 8
  %66 = getelementptr inbounds i64, ptr %65, i64 0
  store i64 %64, ptr %66, align 8
  %67 = load ptr, ptr %7, align 8
  %68 = getelementptr inbounds nuw %struct.SDL_Surface, ptr %67, i32 0, i32 3
  %69 = load i32, ptr %68, align 4
  %70 = sext i32 %69 to i64
  %71 = load ptr, ptr %16, align 8
  %72 = getelementptr inbounds i64, ptr %71, i64 1
  store i64 %70, ptr %72, align 8
  %73 = load ptr, ptr %16, align 8
  %74 = getelementptr inbounds i64, ptr %73, i64 2
  store ptr %74, ptr %18, align 8
  store i32 0, ptr %14, align 4
  br label %75

75:                                               ; preds = %109, %55
  %76 = load i32, ptr %14, align 4
  %77 = load ptr, ptr %7, align 8
  %78 = getelementptr inbounds nuw %struct.SDL_Surface, ptr %77, i32 0, i32 3
  %79 = load i32, ptr %78, align 4
  %80 = icmp slt i32 %76, %79
  br i1 %80, label %81, label %112

81:                                               ; preds = %75
  %82 = load ptr, ptr %7, align 8
  %83 = getelementptr inbounds nuw %struct.SDL_Surface, ptr %82, i32 0, i32 5
  %84 = load ptr, ptr %83, align 8
  %85 = load i32, ptr %14, align 4
  %86 = load ptr, ptr %7, align 8
  %87 = getelementptr inbounds nuw %struct.SDL_Surface, ptr %86, i32 0, i32 4
  %88 = load i32, ptr %87, align 8
  %89 = mul nsw i32 %85, %88
  %90 = sext i32 %89 to i64
  %91 = getelementptr inbounds i8, ptr %84, i64 %90
  store ptr %91, ptr %17, align 8
  store i32 0, ptr %13, align 4
  br label %92

92:                                               ; preds = %105, %81
  %93 = load i32, ptr %13, align 4
  %94 = load ptr, ptr %7, align 8
  %95 = getelementptr inbounds nuw %struct.SDL_Surface, ptr %94, i32 0, i32 2
  %96 = load i32, ptr %95, align 8
  %97 = icmp slt i32 %93, %96
  br i1 %97, label %98, label %108

98:                                               ; preds = %92
  %99 = load ptr, ptr %17, align 8
  %100 = getelementptr inbounds nuw i32, ptr %99, i32 1
  store ptr %100, ptr %17, align 8
  %101 = load i32, ptr %99, align 4
  %102 = zext i32 %101 to i64
  %103 = load ptr, ptr %18, align 8
  %104 = getelementptr inbounds nuw i64, ptr %103, i32 1
  store ptr %104, ptr %18, align 8
  store i64 %102, ptr %103, align 8
  br label %105

105:                                              ; preds = %98
  %106 = load i32, ptr %13, align 4
  %107 = add nsw i32 %106, 1
  store i32 %107, ptr %13, align 4
  br label %92, !llvm.loop !12

108:                                              ; preds = %92
  br label %109

109:                                              ; preds = %108
  %110 = load i32, ptr %14, align 4
  %111 = add nsw i32 %110, 1
  store i32 %111, ptr %14, align 4
  br label %75, !llvm.loop !13

112:                                              ; preds = %75
  %113 = load ptr, ptr @X11_XChangeProperty, align 8
  %114 = load ptr, ptr %9, align 8
  %115 = load ptr, ptr %8, align 8
  %116 = getelementptr inbounds nuw %struct.SDL_WindowData, ptr %115, i32 0, i32 1
  %117 = load i64, ptr %116, align 8
  %118 = load i64, ptr %10, align 8
  %119 = load ptr, ptr %16, align 8
  %120 = load i32, ptr %15, align 4
  %121 = call i32 %113(ptr noundef %114, i64 noundef %117, i64 noundef %118, i64 noundef 6, i32 noundef 32, i32 noundef 0, ptr noundef %119, i32 noundef %120)
  %122 = load ptr, ptr %16, align 8
  call void @SDL_free_REAL(ptr noundef %122)
  %123 = load i8, ptr @caught_x11_error, align 1, !range !5, !noundef !6
  %124 = trunc i8 %123 to i1
  br i1 %124, label %125, label %128

125:                                              ; preds = %112
  %126 = call zeroext i1 (ptr, ...) @SDL_SetError_REAL(ptr noundef @.str.25)
  %127 = zext i1 %126 to i8
  store i8 %127, ptr %12, align 1
  br label %128

128:                                              ; preds = %125, %112
  store i32 0, ptr %19, align 4
  br label %129

129:                                              ; preds = %128, %54
  call void @llvm.lifetime.end.p0(i64 8, ptr %18) #7
  call void @llvm.lifetime.end.p0(i64 8, ptr %17) #7
  call void @llvm.lifetime.end.p0(i64 8, ptr %16) #7
  call void @llvm.lifetime.end.p0(i64 4, ptr %15) #7
  call void @llvm.lifetime.end.p0(i64 4, ptr %14) #7
  call void @llvm.lifetime.end.p0(i64 4, ptr %13) #7
  %130 = load i32, ptr %19, align 4
  switch i32 %130, label %145 [
    i32 0, label %131
  ]

131:                                              ; preds = %129
  br label %132

132:                                              ; preds = %131, %3
  %133 = load ptr, ptr @X11_XFlush, align 8
  %134 = load ptr, ptr %9, align 8
  %135 = call i32 %133(ptr noundef %134)
  %136 = load ptr, ptr %11, align 8
  %137 = icmp ne ptr %136, null
  br i1 %137, label %138, label %142

138:                                              ; preds = %132
  %139 = load ptr, ptr @X11_XSetErrorHandler, align 8
  %140 = load ptr, ptr %11, align 8
  %141 = call ptr %139(ptr noundef %140)
  store i8 0, ptr @caught_x11_error, align 1
  br label %142

142:                                              ; preds = %138, %132
  %143 = load i8, ptr %12, align 1, !range !5, !noundef !6
  %144 = trunc i8 %143 to i1
  store i1 %144, ptr %4, align 1
  store i32 1, ptr %19, align 4
  br label %145

145:                                              ; preds = %142, %129
  call void @llvm.lifetime.end.p0(i64 1, ptr %12) #7
  call void @llvm.lifetime.end.p0(i64 8, ptr %11) #7
  call void @llvm.lifetime.end.p0(i64 8, ptr %10) #7
  call void @llvm.lifetime.end.p0(i64 8, ptr %9) #7
  call void @llvm.lifetime.end.p0(i64 8, ptr %8) #7
  %146 = load i1, ptr %4, align 1
  ret i1 %146
}