; Function Attrs: nounwind uwtable
define hidden zeroext i1 @X11_SetWindowIcon(ptr noundef readnone captures(none) %0, ptr noundef readonly captures(none) %1, ptr noundef readonly captures(address_is_null) %2) local_unnamed_addr #0 {
  %4 = getelementptr inbounds nuw i8, ptr %1, i64 392
  %5 = load ptr, ptr %4, align 8
  %6 = getelementptr inbounds nuw i8, ptr %5, i64 336
  %7 = load ptr, ptr %6, align 8
  %8 = load ptr, ptr %7, align 8
  %9 = getelementptr inbounds nuw i8, ptr %7, i64 352
  %10 = load i64, ptr %9, align 8
  %.not = icmp eq ptr %2, null
  br i1 %.not, label %.thread53, label %13

.thread53:                                        ; preds = %3
  %11 = load ptr, ptr @X11_XFlush, align 8
  %12 = tail call i32 %11(ptr noundef %8) #12
  br label %69

13:                                               ; preds = %3
  %14 = getelementptr inbounds nuw i8, ptr %2, i64 8
  %15 = load i32, ptr %14, align 8
  %16 = getelementptr inbounds nuw i8, ptr %2, i64 12
  %17 = load i32, ptr %16, align 4
  %18 = mul nsw i32 %17, %15
  %19 = add nsw i32 %18, 2
  %20 = sext i32 %19 to i64
  %21 = shl nsw i64 %20, 3
  %22 = tail call noalias ptr @SDL_malloc_REAL(i64 noundef %21) #12
  %.not48.not = icmp eq ptr %22, null
  br i1 %.not48.not, label %69, label %23

23:                                               ; preds = %13
  %24 = load ptr, ptr @X11_XSync, align 8
  %25 = tail call i32 %24(ptr noundef %8, i32 noundef 0) #12
  %26 = load ptr, ptr @X11_XSetErrorHandler, align 8
  %27 = tail call ptr %26(ptr noundef nonnull @X11_CatchAnyError) #12
  %28 = load i32, ptr %14, align 8
  %29 = sext i32 %28 to i64
  store i64 %29, ptr %22, align 8
  %30 = load i32, ptr %16, align 4
  %31 = sext i32 %30 to i64
  %32 = getelementptr inbounds nuw i8, ptr %22, i64 8
  store i64 %31, ptr %32, align 8
  %33 = icmp sgt i32 %30, 0
  br i1 %33, label %.lr.ph63, label %._crit_edge64

.lr.ph63:                                         ; preds = %23
  %34 = getelementptr inbounds nuw i8, ptr %2, i64 24
  %35 = getelementptr inbounds nuw i8, ptr %2, i64 16
  %36 = icmp sgt i32 %28, 0
  br i1 %36, label %.lr.ph63.split.preheader, label %._crit_edge64

.lr.ph63.split.preheader:                         ; preds = %.lr.ph63
  %37 = getelementptr inbounds nuw i8, ptr %22, i64 16
  br label %.lr.ph63.split

.lr.ph63.split:                                   ; preds = %.lr.ph63.split.preheader, %._crit_edge
  %38 = phi i32 [ %53, %._crit_edge ], [ %30, %.lr.ph63.split.preheader ]
  %39 = phi i32 [ %54, %._crit_edge ], [ %28, %.lr.ph63.split.preheader ]
  %.03661 = phi ptr [ %.1.lcssa, %._crit_edge ], [ %37, %.lr.ph63.split.preheader ]
  %.04260 = phi i32 [ %55, %._crit_edge ], [ 0, %.lr.ph63.split.preheader ]
  %40 = icmp sgt i32 %39, 0
  br i1 %40, label %.lr.ph.preheader, label %._crit_edge

.lr.ph.preheader:                                 ; preds = %.lr.ph63.split
  %41 = load ptr, ptr %34, align 8
  %42 = load i32, ptr %35, align 8
  %43 = mul nsw i32 %42, %.04260
  %44 = sext i32 %43 to i64
  %45 = getelementptr inbounds i8, ptr %41, i64 %44
  br label %.lr.ph

.lr.ph:                                           ; preds = %.lr.ph.preheader, %.lr.ph
  %.159 = phi ptr [ %49, %.lr.ph ], [ %.03661, %.lr.ph.preheader ]
  %.03758 = phi ptr [ %46, %.lr.ph ], [ %45, %.lr.ph.preheader ]
  %.04357 = phi i32 [ %50, %.lr.ph ], [ 0, %.lr.ph.preheader ]
  %46 = getelementptr inbounds nuw i8, ptr %.03758, i64 4
  %47 = load i32, ptr %.03758, align 4
  %48 = zext i32 %47 to i64
  %49 = getelementptr inbounds nuw i8, ptr %.159, i64 8
  store i64 %48, ptr %.159, align 8
  %50 = add nuw nsw i32 %.04357, 1
  %51 = load i32, ptr %14, align 8
  %52 = icmp slt i32 %50, %51
  br i1 %52, label %.lr.ph, label %._crit_edge.loopexit, !llvm.loop !12

._crit_edge.loopexit:                             ; preds = %.lr.ph
  %.pre = load i32, ptr %16, align 4
  br label %._crit_edge

._crit_edge:                                      ; preds = %._crit_edge.loopexit, %.lr.ph63.split
  %53 = phi i32 [ %38, %.lr.ph63.split ], [ %.pre, %._crit_edge.loopexit ]
  %54 = phi i32 [ %39, %.lr.ph63.split ], [ %51, %._crit_edge.loopexit ]
  %.1.lcssa = phi ptr [ %.03661, %.lr.ph63.split ], [ %49, %._crit_edge.loopexit ]
  %55 = add nuw nsw i32 %.04260, 1
  %56 = icmp slt i32 %55, %53
  br i1 %56, label %.lr.ph63.split, label %._crit_edge64, !llvm.loop !13

._crit_edge64:                                    ; preds = %._crit_edge, %.lr.ph63, %23
  %57 = load ptr, ptr @X11_XChangeProperty, align 8
  %58 = getelementptr inbounds nuw i8, ptr %5, i64 8
  %59 = load i64, ptr %58, align 8
  %60 = tail call i32 %57(ptr noundef %8, i64 noundef %59, i64 noundef %10, i64 noundef 6, i32 noundef 32, i32 noundef 0, ptr noundef nonnull %22, i32 noundef %19) #12
  tail call void @SDL_free_REAL(ptr noundef nonnull %22) #12
  %.b49 = load i1, ptr @caught_x11_error, align 1
  br i1 %.b49, label %61, label %63

61:                                               ; preds = %._crit_edge64
  %62 = tail call zeroext i1 (ptr, ...) @SDL_SetError_REAL(ptr noundef nonnull @.str.25) #12
  br label %63

63:                                               ; preds = %._crit_edge64, %61
  %.145.ph = phi i1 [ true, %._crit_edge64 ], [ %62, %61 ]
  %64 = load ptr, ptr @X11_XFlush, align 8
  %65 = tail call i32 %64(ptr noundef %8) #12
  %.not50 = icmp eq ptr %27, null
  br i1 %.not50, label %69, label %66

66:                                               ; preds = %63
  %67 = load ptr, ptr @X11_XSetErrorHandler, align 8
  %68 = tail call ptr %67(ptr noundef nonnull %27) #12
  store i1 false, ptr @caught_x11_error, align 1
  br label %69

69:                                               ; preds = %.thread53, %13, %63, %66
  %.139 = phi i1 [ %.145.ph, %66 ], [ %.145.ph, %63 ], [ false, %13 ], [ true, %.thread53 ]
  ret i1 %.139
}